target datalayout = "e-m:e-p270:32:32-p271:32:32-p272:64:64-i64:64-i128:128-f80:128-n8:16:32:64-S128"
target triple = "x86_64-pc-linux-gnu"

%"struct.ozz::animation::IKTwoBoneJob" = type { <4 x float>, <4 x float>, <4 x float>, float, float, float, ptr, ptr, ptr, ptr, ptr, ptr }

; Function Attrs: mustprogress uwtable
define dso_local void @_ZN3ozz9animation12IKTwoBoneJobC2Ev(ptr noundef nonnull align 16 dereferenceable(112) %0) unnamed_addr #4 align 2 {
  %2 = alloca <2 x i64>, align 16
  %3 = alloca <2 x i64>, align 16
  %4 = alloca <2 x i64>, align 16
  %5 = alloca <2 x i64>, align 16
  %6 = alloca <2 x i64>, align 16
  %7 = alloca <2 x i64>, align 16
  %8 = alloca <2 x i64>, align 16
  %9 = alloca i32, align 4
  %10 = alloca <2 x i64>, align 16
  %11 = alloca i32, align 4
  %12 = alloca <2 x i64>, align 16
  %13 = alloca i32, align 4
  %14 = alloca <2 x i64>, align 16
  %15 = alloca i32, align 4
  %16 = alloca <2 x i64>, align 16
  %17 = alloca <2 x i64>, align 16
  %18 = alloca <4 x float>, align 16
  %19 = alloca <2 x i64>, align 16
  %20 = alloca <2 x i64>, align 16
  %21 = alloca <2 x i64>, align 16
  %22 = alloca <2 x i64>, align 16
  %23 = alloca ptr, align 8
  store ptr %0, ptr %23, align 8
  %24 = load ptr, ptr %23, align 8
  %25 = getelementptr inbounds %"struct.ozz::animation::IKTwoBoneJob", ptr %24, i32 0, i32 0
  store <4 x float> zeroinitializer, ptr %18, align 16
  %26 = load <4 x float>, ptr %18, align 16
  store <4 x float> %26, ptr %25, align 16
  %27 = getelementptr inbounds %"struct.ozz::animation::IKTwoBoneJob", ptr %24, i32 0, i32 1
  store <2 x i64> zeroinitializer, ptr %16, align 16
  %28 = load <2 x i64>, ptr %16, align 16
  store <2 x i64> %28, ptr %21, align 16
  %29 = load <2 x i64>, ptr %21, align 16
  %30 = load <2 x i64>, ptr %21, align 16
  store <2 x i64> %29, ptr %4, align 16
  store <2 x i64> %30, ptr %5, align 16
  %31 = load <2 x i64>, ptr %4, align 16
  %32 = bitcast <2 x i64> %31 to <4 x i32>
  %33 = load <2 x i64>, ptr %5, align 16
  %34 = bitcast <2 x i64> %33 to <4 x i32>
  %35 = icmp eq <4 x i32> %32, %34
  %36 = sext <4 x i1> %35 to <4 x i32>
  %37 = bitcast <4 x i32> %36 to <2 x i64>
  store <2 x i64> %37, ptr %8, align 16
  store i32 25, ptr %9, align 4
  %38 = load <2 x i64>, ptr %8, align 16
  %39 = bitcast <2 x i64> %38 to <4 x i32>
  %40 = load i32, ptr %9, align 4
  %41 = call <4 x i32> @llvm.x86.sse2.pslli.d(<4 x i32> %39, i32 %40)
  %42 = bitcast <4 x i32> %41 to <2 x i64>
  store <2 x i64> %42, ptr %12, align 16
  store i32 2, ptr %13, align 4
  %43 = load <2 x i64>, ptr %12, align 16
  %44 = bitcast <2 x i64> %43 to <4 x i32>
  %45 = load i32, ptr %13, align 4
  %46 = call <4 x i32> @llvm.x86.sse2.psrli.d(<4 x i32> %44, i32 %45)
  %47 = bitcast <4 x i32> %46 to <2 x i64>
  store <2 x i64> %47, ptr %22, align 16
  %48 = load <2 x i64>, ptr %22, align 16
  %49 = bitcast <2 x i64> %48 to <16 x i8>
  %50 = shufflevector <16 x i8> %49, <16 x i8> zeroinitializer, <16 x i32> <i32 12, i32 13, i32 14, i32 15, i32 16, i32 17, i32 18, i32 19, i32 20, i32 21, i32 22, i32 23, i32 24, i32 25, i32 26, i32 27>
  %51 = shufflevector <16 x i8> zeroinitializer, <16 x i8> %50, <16 x i32> <i32 8, i32 9, i32 10, i32 11, i32 12, i32 13, i32 14, i32 15, i32 16, i32 17, i32 18, i32 19, i32 20, i32 21, i32 22, i32 23>
  %52 = bitcast <16 x i8> %51 to <2 x i64>
  store <2 x i64> %52, ptr %2, align 16
  %53 = load <2 x i64>, ptr %2, align 16
  %54 = bitcast <2 x i64> %53 to <4 x float>
  store <4 x float> %54, ptr %27, align 16
  %55 = getelementptr inbounds %"struct.ozz::animation::IKTwoBoneJob", ptr %24, i32 0, i32 2
  store <2 x i64> zeroinitializer, ptr %17, align 16
  %56 = load <2 x i64>, ptr %17, align 16
  store <2 x i64> %56, ptr %19, align 16
  %57 = load <2 x i64>, ptr %19, align 16
  %58 = load <2 x i64>, ptr %19, align 16
  store <2 x i64> %57, ptr %6, align 16
  store <2 x i64> %58, ptr %7, align 16
  %59 = load <2 x i64>, ptr %6, align 16
  %60 = bitcast <2 x i64> %59 to <4 x i32>
  %61 = load <2 x i64>, ptr %7, align 16
  %62 = bitcast <2 x i64> %61 to <4 x i32>
  %63 = icmp eq <4 x i32> %60, %62
  %64 = sext <4 x i1> %63 to <4 x i32>
  %65 = bitcast <4 x i32> %64 to <2 x i64>
  store <2 x i64> %65, ptr %10, align 16
  store i32 25, ptr %11, align 4
  %66 = load <2 x i64>, ptr %10, align 16
  %67 = bitcast <2 x i64> %66 to <4 x i32>
  %68 = load i32, ptr %11, align 4
  %69 = call <4 x i32> @llvm.x86.sse2.pslli.d(<4 x i32> %67, i32 %68)
  %70 = bitcast <4 x i32> %69 to <2 x i64>
  store <2 x i64> %70, ptr %14, align 16
  store i32 2, ptr %15, align 4
  %71 = load <2 x i64>, ptr %14, align 16
  %72 = bitcast <2 x i64> %71 to <4 x i32>
  %73 = load i32, ptr %15, align 4
  %74 = call <4 x i32> @llvm.x86.sse2.psrli.d(<4 x i32> %72, i32 %73)
  %75 = bitcast <4 x i32> %74 to <2 x i64>
  store <2 x i64> %75, ptr %20, align 16
  %76 = load <2 x i64>, ptr %20, align 16
  %77 = bitcast <2 x i64> %76 to <16 x i8>
  %78 = shufflevector <16 x i8> %77, <16 x i8> zeroinitializer, <16 x i32> <i32 12, i32 13, i32 14, i32 15, i32 16, i32 17, i32 18, i32 19, i32 20, i32 21, i32 22, i32 23, i32 24, i32 25, i32 26, i32 27>
  %79 = shufflevector <16 x i8> zeroinitializer, <16 x i8> %78, <16 x i32> <i32 12, i32 13, i32 14, i32 15, i32 16, i32 17, i32 18, i32 19, i32 20, i32 21, i32 22, i32 23, i32 24, i32 25, i32 26, i32 27>
  %80 = bitcast <16 x i8> %79 to <2 x i64>
  store <2 x i64> %80, ptr %3, align 16
  %81 = load <2 x i64>, ptr %3, align 16
  %82 = bitcast <2 x i64> %81 to <4 x float>
  store <4 x float> %82, ptr %55, align 16
  %83 = getelementptr inbounds %"struct.ozz::animation::IKTwoBoneJob", ptr %24, i32 0, i32 3
  store float 0.000000e+00, ptr %83, align 16
  %84 = getelementptr inbounds %"struct.ozz::animation::IKTwoBoneJob", ptr %24, i32 0, i32 4
  store float 1.000000e+00, ptr %84, align 4
  %85 = getelementptr inbounds %"struct.ozz::animation::IKTwoBoneJob", ptr %24, i32 0, i32 5
  store float 1.000000e+00, ptr %85, align 8
  %86 = getelementptr inbounds %"struct.ozz::animation::IKTwoBoneJob", ptr %24, i32 0, i32 6
  store ptr null, ptr %86, align 16
  %87 = getelementptr inbounds %"struct.ozz::animation::IKTwoBoneJob", ptr %24, i32 0, i32 7
  store ptr null, ptr %87, align 8
  %88 = getelementptr inbounds %"struct.ozz::animation::IKTwoBoneJob", ptr %24, i32 0, i32 8
  store ptr null, ptr %88, align 16
  %89 = getelementptr inbounds %"struct.ozz::animation::IKTwoBoneJob", ptr %24, i32 0, i32 9
  store ptr null, ptr %89, align 8
  %90 = getelementptr inbounds %"struct.ozz::animation::IKTwoBoneJob", ptr %24, i32 0, i32 10
  store ptr null, ptr %90, align 16
  %91 = getelementptr inbounds %"struct.ozz::animation::IKTwoBoneJob", ptr %24, i32 0, i32 11
  store ptr null, ptr %91, align 8
  ret void
}