; Function Attrs: mustprogress nofree norecurse nosync nounwind willreturn memory(argmem: write) uwtable
define dso_local void @_ZN3ozz9animation12IKTwoBoneJobC2Ev(ptr nocapture noundef nonnull writeonly align 16 dereferenceable(112) %0) unnamed_addr #3 align 2 {
  store <4 x float> zeroinitializer, ptr %0, align 16
  %2 = getelementptr inbounds i8, ptr %0, i64 16
  store <4 x float> <float 0.000000e+00, float 0.000000e+00, float 1.000000e+00, float 0.000000e+00>, ptr %2, align 16
  %3 = getelementptr inbounds i8, ptr %0, i64 32
  store <4 x float> <float 0.000000e+00, float 1.000000e+00, float 0.000000e+00, float 0.000000e+00>, ptr %3, align 16
  %4 = getelementptr inbounds i8, ptr %0, i64 48
  store <2 x float> <float 0.000000e+00, float 1.000000e+00>, ptr %4, align 16
  %5 = getelementptr inbounds i8, ptr %0, i64 56
  store float 1.000000e+00, ptr %5, align 8
  %6 = getelementptr inbounds i8, ptr %0, i64 64
  tail call void @llvm.memset.p0.i64(ptr noundef nonnull align 16 dereferenceable(48) %6, i8 0, i64 48, i1 false)
  ret void
}